cnumpy.core.multiarray
_reconstruct
p0
(cnumpy
ndarray
p1
(I0
tp2
S'b'
p3
tp4
Rp5
(I1
(I223
tp6
cnumpy
dtype
p7
(S'O8'
p8
I0
I1
tp9
Rp10
(I3
S'|'
p11
NNNI-1
I-1
I63
tp12
bI00
(lp13
(dp14
Vkftime
p15
I13061
sVftime
p16
I12773
sVkey
p17
VMeta
p18
sVtime
p19
I288
sa(dp20
Vkftime
p21
I87
sVftime
p22
NsVkey
p23
VH
p24
sVtime
p25
I87
sa(dp26
Vkftime
p27
I206
sVftime
p28
I79
sVkey
p29
Ve
p30
sVtime
p31
I127
sa(dp32
Vkftime
p33
I208
sVftime
p34
I2
sVkey
p35
Vl
p36
sVtime
p37
I206
sa(dp38
Vkftime
p39
I582
sVftime
p40
I475
sVkey
p41
Vl
p42
sVtime
p43
I107
sa(dp44
Vkftime
p45
I178
sVftime
p46
I83
sVkey
p47
Vo
p48
sVtime
p49
I95
sa(dp50
Vkftime
p51
I203
sVftime
p52
I132
sVkey
p53
V 
p54
sVtime
p55
I71
sa(dp56
Vkftime
p57
I265
sVftime
p58
I174
sVkey
p59
Vi
p60
sVtime
p61
I91
sa(dp62
Vkftime
p63
I158
sVftime
p64
I59
sVkey
p65
Vt
p66
sVtime
p67
I99
sa(dp68
Vkftime
p69
I143
sVftime
p70
I64
sVkey
p71
V'
p72
sVtime
p73
I79
sa(dp74
Vkftime
p75
I183
sVftime
p76
I48
sVkey
p77
Vs
p78
sVtime
p79
I135
sa(dp80
Vkftime
p81
I75
sVftime
p82
I0
sVkey
p83
V 
p84
sVtime
p85
I75
sa(dp86
Vkftime
p87
I158
sVftime
p88
I91
sVkey
p89
Vn
p90
sVtime
p91
I67
sa(dp92
Vkftime
p93
I171
sVftime
p94
I72
sVkey
p95
Vi
p96
sVtime
p97
I99
sa(dp98
Vkftime
p99
I83
sVftime
p100
I0
sVkey
p101
Vc
p102
sVtime
p103
I83
sa(dp104
Vkftime
p105
I100
sVftime
p106
I9
sVkey
p107
Ve
p108
sVtime
p109
I91
sa(dp110
Vkftime
p111
I108
sVftime
p112
I9
sVkey
p113
V 
p114
sVtime
p115
I99
sa(dp116
Vkftime
p117
I95
sVftime
p118
I0
sVkey
p119
Vt
p120
sVtime
p121
I95
sa(dp122
Vkftime
p123
I138
sVftime
p124
I55
sVkey
p125
Vo
p126
sVtime
p127
I83
sa(dp128
Vkftime
p129
I188
sVftime
p130
I117
sVkey
p131
V 
p132
sVtime
p133
I71
sa(dp134
Vkftime
p135
I157
sVftime
p136
I83
sVkey
p137
Vm
p138
sVtime
p139
I74
sa(dp140
Vkftime
p141
I60
sVftime
p142
I0
sVkey
p143
Ve
p144
sVtime
p145
I60
sa(dp146
Vkftime
p147
I141
sVftime
p148
I67
sVkey
p149
Ve
p150
sVtime
p151
I74
sa(dp152
Vkftime
p153
I162
sVftime
p154
I67
sVkey
p155
Vt
p156
sVtime
p157
I95
sa(dp158
Vkftime
p159
I92
sVftime
p160
I5
sVkey
p161
V 
p162
sVtime
p163
I87
sa(dp164
Vkftime
p165
I337
sVftime
p166
I254
sVkey
p167
Vy
p168
sVtime
p169
I83
sa(dp170
Vkftime
p171
I79
sVftime
p172
I0
sVkey
p173
Vo
p174
sVtime
p175
I79
sa(dp176
Vkftime
p177
I173
sVftime
p178
I74
sVkey
p179
Vu
p180
sVtime
p181
I99
sa(dp182
Vkftime
p183
I208
sVftime
p184
I113
sVkey
p185
V 
p186
sVtime
p187
I95
sa(dp188
Vkftime
p189
I122
sVftime
p190
I27
sVkey
p191
Vg
p192
sVtime
p193
I95
sa(dp194
Vkftime
p195
I80
sVftime
p196
I29
sVkey
p197
Vo
p198
sVtime
p199
I51
sa(dp200
Vkftime
p201
I124
sVftime
p202
I57
sVkey
p203
Vo
p204
sVtime
p205
I67
sa(dp206
Vkftime
p207
I149
sVftime
p208
I50
sVkey
p209
Vd
p210
sVtime
p211
I99
sa(dp212
Vkftime
p213
I71
sVftime
p214
I0
sVkey
p215
V 
p216
sVtime
p217
I71
sa(dp218
Vkftime
p219
I244
sVftime
p220
I176
sVkey
p221
Vf
p222
sVtime
p223
I68
sa(dp224
Vkftime
p225
I144
sVftime
p226
I53
sVkey
p227
Vi
p228
sVtime
p229
I91
sa(dp230
Vkftime
p231
I184
sVftime
p232
I133
sVkey
p233
Vr
p234
sVtime
p235
I51
sa(dp236
Vkftime
p237
I95
sVftime
p238
NsVkey
p239
Vr
p240
sVtime
p241
I95
sa(dp242
Vkftime
p243
I99
sVftime
p244
NsVkey
p245
Vf
p246
sVtime
p247
I99
sa(dp248
Vkftime
p249
I125
sVftime
p250
I38
sVkey
p251
Vi
p252
sVtime
p253
I87
sa(dp254
Vkftime
p255
I79
sVftime
p256
I0
sVkey
p257
Vr
p258
sVtime
p259
I79
sa(dp260
Vkftime
p261
I166
sVftime
p262
I67
sVkey
p263
Ve
p264
sVtime
p265
I99
sa(dp266
Vkftime
p267
I116
sVftime
p268
I31
sVkey
p269
Vn
p270
sVtime
p271
I85
sa(dp272
Vkftime
p273
I123
sVftime
p274
I0
sVkey
p275
Vd
p276
sVtime
p277
I123
sa(dp278
Vkftime
p279
I59
sVftime
p280
NsVkey
p281
Vf
p282
sVtime
p283
I59
sa(dp284
Vkftime
p285
I415
sVftime
p286
I328
sVkey
p287
Vr
p288
sVtime
p289
I87
sa(dp290
Vkftime
p291
I165
sVftime
p292
I86
sVkey
p293
Vi
p294
sVtime
p295
I79
sa(dp296
Vkftime
p297
I170
sVftime
p298
I63
sVkey
p299
Ve
p300
sVtime
p301
I107
sa(dp302
Vkftime
p303
I179
sVftime
p304
I84
sVkey
p305
Vn
p306
sVtime
p307
I95
sa(dp308
Vkftime
p309
I123
sVftime
p310
I0
sVkey
p311
Vd
p312
sVtime
p313
I123
sa(dp314
Vkftime
p315
I11439
sVftime
p316
I11352
sVkey
p317
VI
p318
sVtime
p319
I87
sa(dp320
Vkftime
p321
I265
sVftime
p322
I182
sVkey
p323
V 
p324
sVtime
p325
I83
sa(dp326
Vkftime
p327
I176
sVftime
p328
I77
sVkey
p329
Vm
p330
sVtime
p331
I99
sa(dp332
Vkftime
p333
I233
sVftime
p334
I145
sVkey
p335
Ve
p336
sVtime
p337
I88
sa(dp338
Vkftime
p339
I182
sVftime
p340
I88
sVkey
p341
Va
p342
sVtime
p343
I94
sa(dp344
Vkftime
p345
I79
sVftime
p346
I0
sVkey
p347
Vn
p348
sVtime
p349
I79
sa(dp350
Vkftime
p351
I134
sVftime
p352
I74
sVkey
p353
V 
p354
sVtime
p355
I60
sa(dp356
Vkftime
p357
I636
sVftime
p358
I505
sVkey
p359
VI
p360
sVtime
p361
I131
sa(dp362
Vkftime
p363
I260
sVftime
p364
I164
sVkey
p365
V'
p366
sVtime
p367
I96
sa(dp368
Vkftime
p369
I118
sVftime
p370
I51
sVkey
p371
Vv
p372
sVtime
p373
I67
sa(dp374
Vkftime
p375
I110
sVftime
p376
I30
sVkey
p377
Ve
p378
sVtime
p379
I80
sa(dp380
Vkftime
p381
I121
sVftime
p382
I29
sVkey
p383
V 
p384
sVtime
p385
I92
sa(dp386
Vkftime
p387
I216
sVftime
p388
I120
sVkey
p389
Vo
p390
sVtime
p391
I96
sa(dp392
Vkftime
p393
I68
sVftime
p394
I0
sVkey
p395
Vf
p396
sVtime
p397
I68
sa(dp398
Vkftime
p399
I177
sVftime
p400
I110
sVkey
p401
Vt
p402
sVtime
p403
I67
sa(dp404
Vkftime
p405
I172
sVftime
p406
I70
sVkey
p407
Ve
p408
sVtime
p409
I102
sa(dp410
Vkftime
p411
I79
sVftime
p412
I0
sVkey
p413
Vn
p414
sVtime
p415
I79
sa(dp416
Vkftime
p417
I147
sVftime
p418
I60
sVkey
p419
V 
p420
sVtime
p421
I87
sa(dp422
Vkftime
p423
I223
sVftime
p424
I117
sVkey
p425
Vl
p426
sVtime
p427
I106
sa(dp428
Vkftime
p429
I172
sVftime
p430
I96
sVkey
p431
Vo
p432
sVtime
p433
I76
sa(dp434
Vkftime
p435
I197
sVftime
p436
I102
sVkey
p437
Vn
p438
sVtime
p439
I95
sa(dp440
Vkftime
p441
I66
sVftime
p442
I0
sVkey
p443
Vg
p444
sVtime
p445
I66
sa(dp446
Vkftime
p447
I148
sVftime
p448
I51
sVkey
p449
Ve
p450
sVtime
p451
I97
sa(dp452
Vkftime
p453
I205
sVftime
p454
I82
sVkey
p455
Vd
p456
sVtime
p457
I123
sa(dp458
Vkftime
p459
I87
sVftime
p460
I0
sVkey
p461
V 
p462
sVtime
p463
I87
sa(dp464
Vkftime
p465
I146
sVftime
p466
I60
sVkey
p467
Vt
p468
sVtime
p469
I86
sa(dp470
Vkftime
p471
I64
sVftime
p472
I0
sVkey
p473
Vo
p474
sVtime
p475
I64
sa(dp476
Vkftime
p477
I234
sVftime
p478
I147
sVkey
p479
V 
p480
sVtime
p481
I87
sa(dp482
Vkftime
p483
I126
sVftime
p484
I55
sVkey
p485
Vs
p486
sVtime
p487
I71
sa(dp488
Vkftime
p489
I151
sVftime
p490
I100
sVkey
p491
Ve
p492
sVtime
p493
I51
sa(dp494
Vkftime
p495
I111
sVftime
p496
I55
sVkey
p497
Ve
p498
sVtime
p499
I56
sa(dp500
Vkftime
p501
I216
sVftime
p502
I105
sVkey
p503
V 
p504
sVtime
p505
I111
sa(dp506
Vkftime
p507
I114
sVftime
p508
I25
sVkey
p509
Vy
p510
sVtime
p511
I89
sa(dp512
Vkftime
p513
I96
sVftime
p514
I32
sVkey
p515
Vo
p516
sVtime
p517
I64
sa(dp518
Vkftime
p519
I161
sVftime
p520
I58
sVkey
p521
Vu
p522
sVtime
p523
I103
sa(dp524
Vkftime
p525
I99
sVftime
p526
I0
sVkey
p527
Vr
p528
sVtime
p529
I99
sa(dp530
Vkftime
p531
I123
sVftime
p532
I36
sVkey
p533
V 
p534
sVtime
p535
I87
sa(dp536
Vkftime
p537
I117
sVftime
p538
I47
sVkey
p539
Vf
p540
sVtime
p541
I70
sa(dp542
Vkftime
p543
I169
sVftime
p544
I81
sVkey
p545
Va
p546
sVtime
p547
I88
sa(dp548
Vkftime
p549
I136
sVftime
p550
I58
sVkey
p551
Vc
p552
sVtime
p553
I78
sa(dp554
Vkftime
p555
I143
sVftime
p556
I25
sVkey
p557
Ve
p558
sVtime
p559
I118
sa(dp560
Vkftime
p561
I1206
sVftime
p562
I1123
sVkey
p563
VH
p564
sVtime
p565
I83
sa(dp566
Vkftime
p567
I140
sVftime
p568
I57
sVkey
p569
Vo
p570
sVtime
p571
I83
sa(dp572
Vkftime
p573
I101
sVftime
p574
I26
sVkey
p575
Vw
p576
sVtime
p577
I75
sa(dp578
Vkftime
p579
I124
sVftime
p580
I57
sVkey
p581
V 
p582
sVtime
p583
I67
sa(dp584
Vkftime
p585
I116
sVftime
p586
I11
sVkey
p587
Va
p588
sVtime
p589
I105
sa(dp590
Vkftime
p591
I124
sVftime
p592
I26
sVkey
p593
Vr
p594
sVtime
p595
I98
sa(dp596
Vkftime
p597
I78
sVftime
p598
I0
sVkey
p599
Ve
p600
sVtime
p601
I78
sa(dp602
Vkftime
p603
I100
sVftime
p604
I0
sVkey
p605
V 
p606
sVtime
p607
I100
sa(dp608
Vkftime
p609
I137
sVftime
p610
I34
sVkey
p611
Vy
p612
sVtime
p613
I103
sa(dp614
Vkftime
p615
I77
sVftime
p616
I34
sVkey
p617
Vo
p618
sVtime
p619
I43
sa(dp620
Vkftime
p621
I185
sVftime
p622
I74
sVkey
p623
Vu
p624
sVtime
p625
I111
sa(dp626
Vkftime
p627
I520
sVftime
p628
I437
sVkey
p629
V>
p630
sVtime
p631
I83
sa(dp632
Vkftime
p633
I120
sVftime
p634
NsVkey
p635
V?
p636
sVtime
p637
I120
sa(dp638
Vkftime
p639
I79
sVftime
p640
NsVkey
p641
VM
p642
sVtime
p643
I79
sa(dp644
Vkftime
p645
I150
sVftime
p646
I67
sVkey
p647
Va
p648
sVtime
p649
I83
sa(dp650
Vkftime
p651
I163
sVftime
p652
I84
sVkey
p653
Vy
p654
sVtime
p655
I79
sa(dp656
Vkftime
p657
I186
sVftime
p658
I118
sVkey
p659
V 
p660
sVtime
p661
I68
sa(dp662
Vkftime
p663
I423
sVftime
p664
I332
sVkey
p665
VI
p666
sVtime
p667
I91
sa(dp668
Vkftime
p669
I252
sVftime
p670
I161
sVkey
p671
V 
p672
sVtime
p673
I91
sa(dp674
Vkftime
p675
I140
sVftime
p676
I5
sVkey
p677
Va
p678
sVtime
p679
I135
sa(dp680
Vkftime
p681
I119
sVftime
p682
I0
sVkey
p683
Vs
p684
sVtime
p685
I119
sa(dp686
Vkftime
p687
I67
sVftime
p688
I0
sVkey
p689
Vk
p690
sVtime
p691
I67
sa(dp692
Vkftime
p693
I177
sVftime
p694
I94
sVkey
p695
V 
p696
sVtime
p697
I83
sa(dp698
Vkftime
p699
I105
sVftime
p700
I23
sVkey
p701
Vy
p702
sVtime
p703
I82
sa(dp704
Vkftime
p705
I107
sVftime
p706
I32
sVkey
p707
Vo
p708
sVtime
p709
I75
sa(dp710
Vkftime
p711
I134
sVftime
p712
I59
sVkey
p713
Vu
p714
sVtime
p715
I75
sa(dp716
Vkftime
p717
I178
sVftime
p718
I93
sVkey
p719
V 
p720
sVtime
p721
I85
sa(dp722
Vkftime
p723
I87
sVftime
p724
I0
sVkey
p725
Vt
p726
sVtime
p727
I87
sa(dp728
Vkftime
p729
I113
sVftime
p730
I38
sVkey
p731
Vh
p732
sVtime
p733
I75
sa(dp734
Vkftime
p735
I384
sVftime
p736
I313
sVkey
p737
Vi
p738
sVtime
p739
I71
sa(dp740
Vkftime
p741
I141
sVftime
p742
I38
sVkey
p743
Vs
p744
sVtime
p745
I103
sa(dp746
Vkftime
p747
I110
sVftime
p748
I31
sVkey
p749
V 
p750
sVtime
p751
I79
sa(dp752
Vkftime
p753
I143
sVftime
p754
I31
sVkey
p755
Vs
p756
sVtime
p757
I112
sa(dp758
Vkftime
p759
I129
sVftime
p760
I66
sVkey
p761
Vi
p762
sVtime
p763
I63
sa(dp764
Vkftime
p765
I166
sVftime
p766
I107
sVkey
p767
Vl
p768
sVtime
p769
I59
sa(dp770
Vkftime
p771
I106
sVftime
p772
I67
sVkey
p773
Vl
p774
sVtime
p775
I39
sa(dp776
Vkftime
p777
I163
sVftime
p778
I88
sVkey
p779
Vy
p780
sVtime
p781
I75
sa(dp782
Vkftime
p783
I100
sVftime
p784
I9
sVkey
p785
V 
p786
sVtime
p787
I91
sa(dp788
Vkftime
p789
I227
sVftime
p790
I108
sVkey
p791
Vq
p792
sVtime
p793
I119
sa(dp794
Vkftime
p795
I184
sVftime
p796
I81
sVkey
p797
Vu
p798
sVtime
p799
I103
sa(dp800
Vkftime
p801
I80
sVftime
p802
I13
sVkey
p803
Ve
p804
sVtime
p805
I67
sa(dp806
Vkftime
p807
I189
sVftime
p808
I86
sVkey
p809
Vs
p810
sVtime
p811
I103
sa(dp812
Vkftime
p813
I168
sVftime
p814
I85
sVkey
p815
Vt
p816
sVtime
p817
I83
sa(dp818
Vkftime
p819
I64
sVftime
p820
I10
sVkey
p821
Vi
p822
sVtime
p823
I54
sa(dp824
Vkftime
p825
I161
sVftime
p826
I82
sVkey
p827
Vo
p828
sVtime
p829
I79
sa(dp830
Vkftime
p831
I181
sVftime
p832
I78
sVkey
p833
Vn
p834
sVtime
p835
I103
sa(dp836
Vkftime
p837
I967
sVftime
p838
I856
sVkey
p839
VA
p840
sVtime
p841
I111
sa(dp842
Vkftime
p843
I220
sVftime
p844
I141
sVkey
p845
Vh
p846
sVtime
p847
I79
sa(dp848
Vkftime
p849
I76
sVftime
p850
I5
sVkey
p851
Va
p852
sVtime
p853
I71
sa(dp854
Vkftime
p855
I116
sVftime
p856
I36
sVkey
p857
Vh
p858
sVtime
p859
I80
sa(dp860
Vkftime
p861
I92
sVftime
p862
I10
sVkey
p863
Va
p864
sVtime
p865
I82
sa(dp866
Vkftime
p867
I108
sVftime
p868
I13
sVkey
p869
Vh
p870
sVtime
p871
I95
sa(dp872
Vkftime
p873
I116
sVftime
p874
I13
sVkey
p875
Va
p876
sVtime
p877
I103
sa(dp878
Vkftime
p879
I681
sVftime
p880
I606
sVkey
p881
VI
p882
sVtime
p883
I75
sa(dp884
Vkftime
p885
I228
sVftime
p886
I137
sVkey
p887
V 
p888
sVtime
p889
I91
sa(dp890
Vkftime
p891
I100
sVftime
p892
I13
sVkey
p893
Va
p894
sVtime
p895
I87
sa(dp896
Vkftime
p897
I79
sVftime
p898
I0
sVkey
p899
Vm
p900
sVtime
p901
I79
sa(dp902
Vkftime
p903
I137
sVftime
p904
I58
sVkey
p905
V 
p906
sVtime
p907
I79
sa(dp908
Vkftime
p909
I99
sVftime
p910
I0
sVkey
p911
Vs
p912
sVtime
p913
I99
sa(dp914
Vkftime
p915
I122
sVftime
p916
I43
sVkey
p917
Vu
p918
sVtime
p919
I79
sa(dp920
Vkftime
p921
I80
sVftime
p922
I16
sVkey
p923
Vr
p924
sVtime
p925
I64
sa(dp926
Vkftime
p927
I119
sVftime
p928
I0
sVkey
p929
Ve
p930
sVtime
p931
I119
sa(dp932
Vkftime
p933
I83
sVftime
p934
I0
sVkey
p935
V 
p936
sVtime
p937
I83
sa(dp938
Vkftime
p939
I198
sVftime
p940
I100
sVkey
p941
Vy
p942
sVtime
p943
I98
sa(dp944
Vkftime
p945
I72
sVftime
p946
I0
sVkey
p947
Vo
p948
sVtime
p949
I72
sa(dp950
Vkftime
p951
I131
sVftime
p952
I60
sVkey
p953
Vu
p954
sVtime
p955
I71
sa(dp956
Vkftime
p957
I183
sVftime
p958
I104
sVkey
p959
V 
p960
sVtime
p961
I79
sa(dp962
Vkftime
p963
I288
sVftime
p964
I181
sVkey
p965
Vl
p966
sVtime
p967
I107
sa(dp968
Vkftime
p969
I164
sVftime
p970
I87
sVkey
p971
Vo
p972
sVtime
p973
I77
sa(dp974
Vkftime
p975
I64
sVftime
p976
I0
sVkey
p977
Vv
p978
sVtime
p979
I64
sa(dp980
Vkftime
p981
I101
sVftime
p982
I21
sVkey
p983
Ve
p984
sVtime
p985
I80
sa(dp986
Vkftime
p987
I108
sVftime
p988
I20
sVkey
p989
V 
p990
sVtime
p991
I88
sa(dp992
Vkftime
p993
I75
sVftime
p994
I0
sVkey
p995
Vt
p996
sVtime
p997
I75
sa(dp998
Vkftime
p999
I120
sVftime
p1000
I53
sVkey
p1001
Vh
p1002
sVtime
p1003
I67
sa(dp1004
Vkftime
p1005
I79
sVftime
p1006
I0
sVkey
p1007
Va
p1008
sVtime
p1009
I79
sa(dp1010
Vkftime
p1011
I141
sVftime
p1012
I42
sVkey
p1013
Vt
p1014
sVtime
p1015
I99
sa(dp1016
Vkftime
p1017
I158
sVftime
p1018
I91
sVkey
p1019
V 
p1020
sVtime
p1021
I67
sa(dp1022
Vkftime
p1023
I176
sVftime
p1024
I109
sVkey
p1025
Vj
p1026
sVtime
p1027
I67
sa(dp1028
Vkftime
p1029
I151
sVftime
p1030
I73
sVkey
p1031
Vo
p1032
sVtime
p1033
I78
sa(dp1034
Vkftime
p1035
I148
sVftime
p1036
I101
sVkey
p1037
Vj
p1038
sVtime
p1039
I47
sa(dp1040
Vkftime
p1041
I68
sVftime
p1042
I12
sVkey
p1043
Ve
p1044
sVtime
p1045
I56
sa(dp1046
Vkftime
p1047
I79
sVftime
p1048
NsVkey
p1049
Vj
p1050
sVtime
p1051
I79
sa(dp1052
Vkftime
p1053
I158
sVftime
p1054
I91
sVkey
p1055
Vo
p1056
sVtime
p1057
I67
sa(dp1058
Vkftime
p1059
I155
sVftime
p1060
I64
sVkey
p1061
Vk
p1062
sVtime
p1063
I91
sa(dp1064
Vkftime
p1065
I95
sVftime
p1066
I0
sVkey
p1067
Ve
p1068
sVtime
p1069
I95
sa(dp1070
Vkftime
p1071
I852
sVftime
p1072
I769
sVkey
p1073
VF
p1074
sVtime
p1075
I83
sa(dp1076
Vkftime
p1077
I106
sVftime
p1078
I27
sVkey
p1079
Vo
p1080
sVtime
p1081
I79
sa(dp1082
Vkftime
p1083
I88
sVftime
p1084
I13
sVkey
p1085
Vr
p1086
sVtime
p1087
I75
sa(dp1088
Vkftime
p1089
I101
sVftime
p1090
I34
sVkey
p1091
V 
p1092
sVtime
p1093
I67
sa(dp1094
Vkftime
p1095
I195
sVftime
p1096
I100
sVkey
p1097
Vh
p1098
sVtime
p1099
I95
sa(dp1100
Vkftime
p1101
I67
sVftime
p1102
I0
sVkey
p1103
Ve
p1104
sVtime
p1105
I67
sa(dp1106
Vkftime
p1107
I120
sVftime
p1108
I77
sVkey
p1109
Va
p1110
sVtime
p1111
I43
sa(dp1112
Vkftime
p1113
I147
sVftime
p1114
I72
sVkey
p1115
Vv
p1116
sVtime
p1117
I75
sa(dp1118
Vkftime
p1119
I142
sVftime
p1120
I38
sVkey
p1121
Ve
p1122
sVtime
p1123
I104
sa(dp1124
Vkftime
p1125
I91
sVftime
p1126
I28
sVkey
p1127
Vn
p1128
sVtime
p1129
I63
sa(dp1130
Vkftime
p1131
I279
sVftime
p1132
I180
sVkey
p1133
V'
p1134
sVtime
p1135
I99
sa(dp1136
Vkftime
p1137
I96
sVftime
p1138
I12
sVkey
p1139
Vt
p1140
sVtime
p1141
I84
sa(dp1142
Vkftime
p1143
I188
sVftime
p1144
I90
sVkey
p1145
V 
p1146
sVtime
p1147
I98
sa(dp1148
Vkftime
p1149
I104
sVftime
p1150
I5
sVkey
p1151
Vs
p1152
sVtime
p1153
I99
sa(dp1154
Vkftime
p1155
I121
sVftime
p1156
I34
sVkey
p1157
Va
p1158
sVtime
p1159
I87
sa(dp1160
Vkftime
p1161
I624
sVftime
p1162
I541
sVkey
p1163
Vk
p1164
sVtime
p1165
I83
sa(dp1166
Vkftime
p1167
I108
sVftime
p1168
I5
sVkey
p1169
Ve
p1170
sVtime
p1171
I103
sa(dp1172
Vkftime
p1173
I130
sVftime
p1174
I43
sVkey
p1175
V 
p1176
sVtime
p1177
I87
sa(dp1178
Vkftime
p1179
I449
sVftime
p1180
I354
sVkey
p1181
Vd
p1182
sVtime
p1183
I95
sa(dp1184
Vkftime
p1185
I76
sVftime
p1186
I1
sVkey
p1187
Vo
p1188
sVtime
p1189
I75
sa(dp1190
Vkftime
p1191
I170
sVftime
p1192
I83
sVkey
p1193
Vn
p1194
sVtime
p1195
I87
sa(dp1196
Vkftime
p1197
I287
sVftime
p1198
I212
sVkey
p1199
Vt
p1200
sVtime
p1201
I75
sa(dp1202
Vkftime
p1203
I779
sVftime
p1204
I700
sVkey
p1205
V 
p1206
sVtime
p1207
I79
sa(dp1208
Vkftime
p1209
I76
sVftime
p1210
I37
sVkey
p1211
Vw
p1212
sVtime
p1213
I39
sa(dp1214
Vkftime
p1215
I79
sVftime
p1216
NsVkey
p1217
Vd
p1218
sVtime
p1219
I79
sa(dp1220
Vkftime
p1221
I156
sVftime
p1222
I73
sVkey
p1223
Vr
p1224
sVtime
p1225
I83
sa(dp1226
Vkftime
p1227
I387
sVftime
p1228
I304
sVkey
p1229
Vi
p1230
sVtime
p1231
I83
sa(dp1232
Vkftime
p1233
I199
sVftime
p1234
I112
sVkey
p1235
Vv
p1236
sVtime
p1237
I87
sa(dp1238
Vkftime
p1239
I141
sVftime
p1240
I45
sVkey
p1241
Ve
p1242
sVtime
p1243
I96
sa(dp1244
Vkftime
p1245
I71
sVftime
p1246
I0
sVkey
p1247
V 
p1248
sVtime
p1249
I71
sa(dp1250
Vkftime
p1251
I163
sVftime
p1252
I75
sVkey
p1253
Vm
p1254
sVtime
p1255
I88
sa(dp1256
Vkftime
p1257
I91
sVftime
p1258
I0
sVkey
p1259
Ve
p1260
sVtime
p1261
I91
sa(dp1262
Vkftime
p1263
I80
sVftime
p1264
I13
sVkey
p1265
V 
p1266
sVtime
p1267
I67
sa(dp1268
Vkftime
p1269
I209
sVftime
p1270
I121
sVkey
p1271
Vm
p1272
sVtime
p1273
I88
sa(dp1274
Vkftime
p1275
I110
sVftime
p1276
I0
sVkey
p1277
Va
p1278
sVtime
p1279
I110
sa(dp1280
Vkftime
p1281
I103
sVftime
p1282
I0
sVkey
p1283
Vd
p1284
sVtime
p1285
I103
sa(dp1286
Vkftime
p1287
I71
sVftime
p1288
I0
sVkey
p1289
V 
p1290
sVtime
p1291
I71
sa(dp1292
Vkftime
p1293
I214
sVftime
p1294
I131
sVkey
p1295
Vl
p1296
sVtime
p1297
I83
sa(dp1298
Vkftime
p1299
I129
sVftime
p1300
I75
sVkey
p1301
Vi
p1302
sVtime
p1303
I54
sa(dp1304
Vkftime
p1305
I140
sVftime
p1306
I65
sVkey
p1307
Vk
p1308
sVtime
p1309
I75
sa(dp1310
Vkftime
p1311
I99
sVftime
p1312
I0
sVkey
p1313
Ve
p1314
sVtime
p1315
I99
sa(dp1316
Vkftime
p1317
I117
sVftime
p1318
I23
sVkey
p1319
V 
p1320
sVtime
p1321
I94
sa(dp1322
Vkftime
p1323
I102
sVftime
p1324
I43
sVkey
p1325
Vt
p1326
sVtime
p1327
I59
sa(dp1328
Vkftime
p1329
I114
sVftime
p1330
I33
sVkey
p1331
Vh
p1332
sVtime
p1333
I81
sa(dp1334
Vkftime
p1335
I67
sVftime
p1336
I0
sVkey
p1337
Va
p1338
sVtime
p1339
I67
sa(dp1340
Vkftime
p1341
I140
sVftime
p1342
I53
sVkey
p1343
Vt
p1344
sVtime
p1345
I87
sa(dp1346
Vkftime
p1347
I377
sVftime
p1348
I242
sVkey
p1349
V!
p1350
sVtime
p1351
I135
satp1352
b.