(lp0
(dp1
Vkftime
p2
I13061
sVftime
p3
I12773
sVkey
p4
VMeta
p5
sVtime
p6
I288
sa(dp7
Vkftime
p8
I87
sVftime
p9
NsVkey
p10
VH
p11
sVtime
p12
I87
sa(dp13
Vkftime
p14
I206
sVftime
p15
I79
sVkey
p16
Ve
p17
sVtime
p18
I127
sa(dp19
Vkftime
p20
I208
sVftime
p21
I2
sVkey
p22
Vl
p23
sVtime
p24
I206
sa(dp25
Vkftime
p26
I582
sVftime
p27
I475
sVkey
p28
Vl
p29
sVtime
p30
I107
sa(dp31
Vkftime
p32
I178
sVftime
p33
I83
sVkey
p34
Vo
p35
sVtime
p36
I95
sa(dp37
Vkftime
p38
I203
sVftime
p39
I132
sVkey
p40
V 
p41
sVtime
p42
I71
sa(dp43
Vkftime
p44
I265
sVftime
p45
I174
sVkey
p46
Vi
p47
sVtime
p48
I91
sa(dp49
Vkftime
p50
I158
sVftime
p51
I59
sVkey
p52
Vt
p53
sVtime
p54
I99
sa(dp55
Vkftime
p56
I143
sVftime
p57
I64
sVkey
p58
V'
p59
sVtime
p60
I79
sa(dp61
Vkftime
p62
I183
sVftime
p63
I48
sVkey
p64
Vs
p65
sVtime
p66
I135
sa(dp67
Vkftime
p68
I75
sVftime
p69
I0
sVkey
p70
V 
p71
sVtime
p72
I75
sa(dp73
Vkftime
p74
I158
sVftime
p75
I91
sVkey
p76
Vn
p77
sVtime
p78
I67
sa(dp79
Vkftime
p80
I171
sVftime
p81
I72
sVkey
p82
Vi
p83
sVtime
p84
I99
sa(dp85
Vkftime
p86
I83
sVftime
p87
I0
sVkey
p88
Vc
p89
sVtime
p90
I83
sa(dp91
Vkftime
p92
I100
sVftime
p93
I9
sVkey
p94
Ve
p95
sVtime
p96
I91
sa(dp97
Vkftime
p98
I108
sVftime
p99
I9
sVkey
p100
V 
p101
sVtime
p102
I99
sa(dp103
Vkftime
p104
I95
sVftime
p105
I0
sVkey
p106
Vt
p107
sVtime
p108
I95
sa(dp109
Vkftime
p110
I138
sVftime
p111
I55
sVkey
p112
Vo
p113
sVtime
p114
I83
sa(dp115
Vkftime
p116
I188
sVftime
p117
I117
sVkey
p118
V 
p119
sVtime
p120
I71
sa(dp121
Vkftime
p122
I157
sVftime
p123
I83
sVkey
p124
Vm
p125
sVtime
p126
I74
sa(dp127
Vkftime
p128
I60
sVftime
p129
I0
sVkey
p130
Ve
p131
sVtime
p132
I60
sa(dp133
Vkftime
p134
I141
sVftime
p135
I67
sVkey
p136
Ve
p137
sVtime
p138
I74
sa(dp139
Vkftime
p140
I162
sVftime
p141
I67
sVkey
p142
Vt
p143
sVtime
p144
I95
sa(dp145
Vkftime
p146
I92
sVftime
p147
I5
sVkey
p148
V 
p149
sVtime
p150
I87
sa(dp151
Vkftime
p152
I337
sVftime
p153
I254
sVkey
p154
Vy
p155
sVtime
p156
I83
sa(dp157
Vkftime
p158
I79
sVftime
p159
I0
sVkey
p160
Vo
p161
sVtime
p162
I79
sa(dp163
Vkftime
p164
I173
sVftime
p165
I74
sVkey
p166
Vu
p167
sVtime
p168
I99
sa(dp169
Vkftime
p170
I208
sVftime
p171
I113
sVkey
p172
V 
p173
sVtime
p174
I95
sa(dp175
Vkftime
p176
I122
sVftime
p177
I27
sVkey
p178
Vg
p179
sVtime
p180
I95
sa(dp181
Vkftime
p182
I80
sVftime
p183
I29
sVkey
p184
Vo
p185
sVtime
p186
I51
sa(dp187
Vkftime
p188
I124
sVftime
p189
I57
sVkey
p190
Vo
p191
sVtime
p192
I67
sa(dp193
Vkftime
p194
I149
sVftime
p195
I50
sVkey
p196
Vd
p197
sVtime
p198
I99
sa(dp199
Vkftime
p200
I71
sVftime
p201
I0
sVkey
p202
V 
p203
sVtime
p204
I71
sa(dp205
Vkftime
p206
I244
sVftime
p207
I176
sVkey
p208
Vf
p209
sVtime
p210
I68
sa(dp211
Vkftime
p212
I144
sVftime
p213
I53
sVkey
p214
Vi
p215
sVtime
p216
I91
sa(dp217
Vkftime
p218
I184
sVftime
p219
I133
sVkey
p220
Vr
p221
sVtime
p222
I51
sa(dp223
Vkftime
p224
I95
sVftime
p225
NsVkey
p226
Vr
p227
sVtime
p228
I95
sa(dp229
Vkftime
p230
I99
sVftime
p231
NsVkey
p232
Vf
p233
sVtime
p234
I99
sa(dp235
Vkftime
p236
I125
sVftime
p237
I38
sVkey
p238
Vi
p239
sVtime
p240
I87
sa(dp241
Vkftime
p242
I79
sVftime
p243
I0
sVkey
p244
Vr
p245
sVtime
p246
I79
sa(dp247
Vkftime
p248
I166
sVftime
p249
I67
sVkey
p250
Ve
p251
sVtime
p252
I99
sa(dp253
Vkftime
p254
I116
sVftime
p255
I31
sVkey
p256
Vn
p257
sVtime
p258
I85
sa(dp259
Vkftime
p260
I123
sVftime
p261
I0
sVkey
p262
Vd
p263
sVtime
p264
I123
sa(dp265
Vkftime
p266
I59
sVftime
p267
NsVkey
p268
Vf
p269
sVtime
p270
I59
sa(dp271
Vkftime
p272
I415
sVftime
p273
I328
sVkey
p274
Vr
p275
sVtime
p276
I87
sa(dp277
Vkftime
p278
I165
sVftime
p279
I86
sVkey
p280
Vi
p281
sVtime
p282
I79
sa(dp283
Vkftime
p284
I170
sVftime
p285
I63
sVkey
p286
Ve
p287
sVtime
p288
I107
sa(dp289
Vkftime
p290
I179
sVftime
p291
I84
sVkey
p292
Vn
p293
sVtime
p294
I95
sa(dp295
Vkftime
p296
I123
sVftime
p297
I0
sVkey
p298
Vd
p299
sVtime
p300
I123
sa(dp301
Vkftime
p302
I11439
sVftime
p303
I11352
sVkey
p304
VI
p305
sVtime
p306
I87
sa(dp307
Vkftime
p308
I265
sVftime
p309
I182
sVkey
p310
V 
p311
sVtime
p312
I83
sa(dp313
Vkftime
p314
I176
sVftime
p315
I77
sVkey
p316
Vm
p317
sVtime
p318
I99
sa(dp319
Vkftime
p320
I233
sVftime
p321
I145
sVkey
p322
Ve
p323
sVtime
p324
I88
sa(dp325
Vkftime
p326
I182
sVftime
p327
I88
sVkey
p328
Va
p329
sVtime
p330
I94
sa(dp331
Vkftime
p332
I79
sVftime
p333
I0
sVkey
p334
Vn
p335
sVtime
p336
I79
sa(dp337
Vkftime
p338
I134
sVftime
p339
I74
sVkey
p340
V 
p341
sVtime
p342
I60
sa(dp343
Vkftime
p344
I636
sVftime
p345
I505
sVkey
p346
VI
p347
sVtime
p348
I131
sa(dp349
Vkftime
p350
I260
sVftime
p351
I164
sVkey
p352
V'
p353
sVtime
p354
I96
sa(dp355
Vkftime
p356
I118
sVftime
p357
I51
sVkey
p358
Vv
p359
sVtime
p360
I67
sa(dp361
Vkftime
p362
I110
sVftime
p363
I30
sVkey
p364
Ve
p365
sVtime
p366
I80
sa(dp367
Vkftime
p368
I121
sVftime
p369
I29
sVkey
p370
V 
p371
sVtime
p372
I92
sa(dp373
Vkftime
p374
I216
sVftime
p375
I120
sVkey
p376
Vo
p377
sVtime
p378
I96
sa(dp379
Vkftime
p380
I68
sVftime
p381
I0
sVkey
p382
Vf
p383
sVtime
p384
I68
sa(dp385
Vkftime
p386
I177
sVftime
p387
I110
sVkey
p388
Vt
p389
sVtime
p390
I67
sa(dp391
Vkftime
p392
I172
sVftime
p393
I70
sVkey
p394
Ve
p395
sVtime
p396
I102
sa(dp397
Vkftime
p398
I79
sVftime
p399
I0
sVkey
p400
Vn
p401
sVtime
p402
I79
sa(dp403
Vkftime
p404
I147
sVftime
p405
I60
sVkey
p406
V 
p407
sVtime
p408
I87
sa(dp409
Vkftime
p410
I223
sVftime
p411
I117
sVkey
p412
Vl
p413
sVtime
p414
I106
sa(dp415
Vkftime
p416
I172
sVftime
p417
I96
sVkey
p418
Vo
p419
sVtime
p420
I76
sa(dp421
Vkftime
p422
I197
sVftime
p423
I102
sVkey
p424
Vn
p425
sVtime
p426
I95
sa(dp427
Vkftime
p428
I66
sVftime
p429
I0
sVkey
p430
Vg
p431
sVtime
p432
I66
sa(dp433
Vkftime
p434
I148
sVftime
p435
I51
sVkey
p436
Ve
p437
sVtime
p438
I97
sa(dp439
Vkftime
p440
I205
sVftime
p441
I82
sVkey
p442
Vd
p443
sVtime
p444
I123
sa(dp445
Vkftime
p446
I87
sVftime
p447
I0
sVkey
p448
V 
p449
sVtime
p450
I87
sa(dp451
Vkftime
p452
I146
sVftime
p453
I60
sVkey
p454
Vt
p455
sVtime
p456
I86
sa(dp457
Vkftime
p458
I64
sVftime
p459
I0
sVkey
p460
Vo
p461
sVtime
p462
I64
sa(dp463
Vkftime
p464
I234
sVftime
p465
I147
sVkey
p466
V 
p467
sVtime
p468
I87
sa(dp469
Vkftime
p470
I126
sVftime
p471
I55
sVkey
p472
Vs
p473
sVtime
p474
I71
sa(dp475
Vkftime
p476
I151
sVftime
p477
I100
sVkey
p478
Ve
p479
sVtime
p480
I51
sa(dp481
Vkftime
p482
I111
sVftime
p483
I55
sVkey
p484
Ve
p485
sVtime
p486
I56
sa(dp487
Vkftime
p488
I216
sVftime
p489
I105
sVkey
p490
V 
p491
sVtime
p492
I111
sa(dp493
Vkftime
p494
I114
sVftime
p495
I25
sVkey
p496
Vy
p497
sVtime
p498
I89
sa(dp499
Vkftime
p500
I96
sVftime
p501
I32
sVkey
p502
Vo
p503
sVtime
p504
I64
sa(dp505
Vkftime
p506
I161
sVftime
p507
I58
sVkey
p508
Vu
p509
sVtime
p510
I103
sa(dp511
Vkftime
p512
I99
sVftime
p513
I0
sVkey
p514
Vr
p515
sVtime
p516
I99
sa(dp517
Vkftime
p518
I123
sVftime
p519
I36
sVkey
p520
V 
p521
sVtime
p522
I87
sa(dp523
Vkftime
p524
I117
sVftime
p525
I47
sVkey
p526
Vf
p527
sVtime
p528
I70
sa(dp529
Vkftime
p530
I169
sVftime
p531
I81
sVkey
p532
Va
p533
sVtime
p534
I88
sa(dp535
Vkftime
p536
I136
sVftime
p537
I58
sVkey
p538
Vc
p539
sVtime
p540
I78
sa(dp541
Vkftime
p542
I143
sVftime
p543
I25
sVkey
p544
Ve
p545
sVtime
p546
I118
sa(dp547
Vkftime
p548
I1206
sVftime
p549
I1123
sVkey
p550
VH
p551
sVtime
p552
I83
sa(dp553
Vkftime
p554
I140
sVftime
p555
I57
sVkey
p556
Vo
p557
sVtime
p558
I83
sa(dp559
Vkftime
p560
I101
sVftime
p561
I26
sVkey
p562
Vw
p563
sVtime
p564
I75
sa(dp565
Vkftime
p566
I124
sVftime
p567
I57
sVkey
p568
V 
p569
sVtime
p570
I67
sa(dp571
Vkftime
p572
I116
sVftime
p573
I11
sVkey
p574
Va
p575
sVtime
p576
I105
sa(dp577
Vkftime
p578
I124
sVftime
p579
I26
sVkey
p580
Vr
p581
sVtime
p582
I98
sa(dp583
Vkftime
p584
I78
sVftime
p585
I0
sVkey
p586
Ve
p587
sVtime
p588
I78
sa(dp589
Vkftime
p590
I100
sVftime
p591
I0
sVkey
p592
V 
p593
sVtime
p594
I100
sa(dp595
Vkftime
p596
I137
sVftime
p597
I34
sVkey
p598
Vy
p599
sVtime
p600
I103
sa(dp601
Vkftime
p602
I77
sVftime
p603
I34
sVkey
p604
Vo
p605
sVtime
p606
I43
sa(dp607
Vkftime
p608
I185
sVftime
p609
I74
sVkey
p610
Vu
p611
sVtime
p612
I111
sa(dp613
Vkftime
p614
I520
sVftime
p615
I437
sVkey
p616
V>
p617
sVtime
p618
I83
sa(dp619
Vkftime
p620
I120
sVftime
p621
NsVkey
p622
V?
p623
sVtime
p624
I120
sa(dp625
Vkftime
p626
I79
sVftime
p627
NsVkey
p628
VM
p629
sVtime
p630
I79
sa(dp631
Vkftime
p632
I150
sVftime
p633
I67
sVkey
p634
Va
p635
sVtime
p636
I83
sa(dp637
Vkftime
p638
I163
sVftime
p639
I84
sVkey
p640
Vy
p641
sVtime
p642
I79
sa(dp643
Vkftime
p644
I186
sVftime
p645
I118
sVkey
p646
V 
p647
sVtime
p648
I68
sa(dp649
Vkftime
p650
I423
sVftime
p651
I332
sVkey
p652
VI
p653
sVtime
p654
I91
sa(dp655
Vkftime
p656
I252
sVftime
p657
I161
sVkey
p658
V 
p659
sVtime
p660
I91
sa(dp661
Vkftime
p662
I140
sVftime
p663
I5
sVkey
p664
Va
p665
sVtime
p666
I135
sa(dp667
Vkftime
p668
I119
sVftime
p669
I0
sVkey
p670
Vs
p671
sVtime
p672
I119
sa(dp673
Vkftime
p674
I67
sVftime
p675
I0
sVkey
p676
Vk
p677
sVtime
p678
I67
sa(dp679
Vkftime
p680
I177
sVftime
p681
I94
sVkey
p682
V 
p683
sVtime
p684
I83
sa(dp685
Vkftime
p686
I105
sVftime
p687
I23
sVkey
p688
Vy
p689
sVtime
p690
I82
sa(dp691
Vkftime
p692
I107
sVftime
p693
I32
sVkey
p694
Vo
p695
sVtime
p696
I75
sa(dp697
Vkftime
p698
I134
sVftime
p699
I59
sVkey
p700
Vu
p701
sVtime
p702
I75
sa(dp703
Vkftime
p704
I178
sVftime
p705
I93
sVkey
p706
V 
p707
sVtime
p708
I85
sa(dp709
Vkftime
p710
I87
sVftime
p711
I0
sVkey
p712
Vt
p713
sVtime
p714
I87
sa(dp715
Vkftime
p716
I113
sVftime
p717
I38
sVkey
p718
Vh
p719
sVtime
p720
I75
sa(dp721
Vkftime
p722
I384
sVftime
p723
I313
sVkey
p724
Vi
p725
sVtime
p726
I71
sa(dp727
Vkftime
p728
I141
sVftime
p729
I38
sVkey
p730
Vs
p731
sVtime
p732
I103
sa(dp733
Vkftime
p734
I110
sVftime
p735
I31
sVkey
p736
V 
p737
sVtime
p738
I79
sa(dp739
Vkftime
p740
I143
sVftime
p741
I31
sVkey
p742
Vs
p743
sVtime
p744
I112
sa(dp745
Vkftime
p746
I129
sVftime
p747
I66
sVkey
p748
Vi
p749
sVtime
p750
I63
sa(dp751
Vkftime
p752
I166
sVftime
p753
I107
sVkey
p754
Vl
p755
sVtime
p756
I59
sa(dp757
Vkftime
p758
I106
sVftime
p759
I67
sVkey
p760
Vl
p761
sVtime
p762
I39
sa(dp763
Vkftime
p764
I163
sVftime
p765
I88
sVkey
p766
Vy
p767
sVtime
p768
I75
sa(dp769
Vkftime
p770
I100
sVftime
p771
I9
sVkey
p772
V 
p773
sVtime
p774
I91
sa(dp775
Vkftime
p776
I227
sVftime
p777
I108
sVkey
p778
Vq
p779
sVtime
p780
I119
sa(dp781
Vkftime
p782
I184
sVftime
p783
I81
sVkey
p784
Vu
p785
sVtime
p786
I103
sa(dp787
Vkftime
p788
I80
sVftime
p789
I13
sVkey
p790
Ve
p791
sVtime
p792
I67
sa(dp793
Vkftime
p794
I189
sVftime
p795
I86
sVkey
p796
Vs
p797
sVtime
p798
I103
sa(dp799
Vkftime
p800
I168
sVftime
p801
I85
sVkey
p802
Vt
p803
sVtime
p804
I83
sa(dp805
Vkftime
p806
I64
sVftime
p807
I10
sVkey
p808
Vi
p809
sVtime
p810
I54
sa(dp811
Vkftime
p812
I161
sVftime
p813
I82
sVkey
p814
Vo
p815
sVtime
p816
I79
sa(dp817
Vkftime
p818
I181
sVftime
p819
I78
sVkey
p820
Vn
p821
sVtime
p822
I103
sa(dp823
Vkftime
p824
I967
sVftime
p825
I856
sVkey
p826
VA
p827
sVtime
p828
I111
sa(dp829
Vkftime
p830
I220
sVftime
p831
I141
sVkey
p832
Vh
p833
sVtime
p834
I79
sa(dp835
Vkftime
p836
I76
sVftime
p837
I5
sVkey
p838
Va
p839
sVtime
p840
I71
sa(dp841
Vkftime
p842
I116
sVftime
p843
I36
sVkey
p844
Vh
p845
sVtime
p846
I80
sa(dp847
Vkftime
p848
I92
sVftime
p849
I10
sVkey
p850
Va
p851
sVtime
p852
I82
sa(dp853
Vkftime
p854
I108
sVftime
p855
I13
sVkey
p856
Vh
p857
sVtime
p858
I95
sa(dp859
Vkftime
p860
I116
sVftime
p861
I13
sVkey
p862
Va
p863
sVtime
p864
I103
sa(dp865
Vkftime
p866
I681
sVftime
p867
I606
sVkey
p868
VI
p869
sVtime
p870
I75
sa(dp871
Vkftime
p872
I228
sVftime
p873
I137
sVkey
p874
V 
p875
sVtime
p876
I91
sa(dp877
Vkftime
p878
I100
sVftime
p879
I13
sVkey
p880
Va
p881
sVtime
p882
I87
sa(dp883
Vkftime
p884
I79
sVftime
p885
I0
sVkey
p886
Vm
p887
sVtime
p888
I79
sa(dp889
Vkftime
p890
I137
sVftime
p891
I58
sVkey
p892
V 
p893
sVtime
p894
I79
sa(dp895
Vkftime
p896
I99
sVftime
p897
I0
sVkey
p898
Vs
p899
sVtime
p900
I99
sa(dp901
Vkftime
p902
I122
sVftime
p903
I43
sVkey
p904
Vu
p905
sVtime
p906
I79
sa(dp907
Vkftime
p908
I80
sVftime
p909
I16
sVkey
p910
Vr
p911
sVtime
p912
I64
sa(dp913
Vkftime
p914
I119
sVftime
p915
I0
sVkey
p916
Ve
p917
sVtime
p918
I119
sa(dp919
Vkftime
p920
I83
sVftime
p921
I0
sVkey
p922
V 
p923
sVtime
p924
I83
sa(dp925
Vkftime
p926
I198
sVftime
p927
I100
sVkey
p928
Vy
p929
sVtime
p930
I98
sa(dp931
Vkftime
p932
I72
sVftime
p933
I0
sVkey
p934
Vo
p935
sVtime
p936
I72
sa(dp937
Vkftime
p938
I131
sVftime
p939
I60
sVkey
p940
Vu
p941
sVtime
p942
I71
sa(dp943
Vkftime
p944
I183
sVftime
p945
I104
sVkey
p946
V 
p947
sVtime
p948
I79
sa(dp949
Vkftime
p950
I288
sVftime
p951
I181
sVkey
p952
Vl
p953
sVtime
p954
I107
sa(dp955
Vkftime
p956
I164
sVftime
p957
I87
sVkey
p958
Vo
p959
sVtime
p960
I77
sa(dp961
Vkftime
p962
I64
sVftime
p963
I0
sVkey
p964
Vv
p965
sVtime
p966
I64
sa(dp967
Vkftime
p968
I101
sVftime
p969
I21
sVkey
p970
Ve
p971
sVtime
p972
I80
sa(dp973
Vkftime
p974
I108
sVftime
p975
I20
sVkey
p976
V 
p977
sVtime
p978
I88
sa(dp979
Vkftime
p980
I75
sVftime
p981
I0
sVkey
p982
Vt
p983
sVtime
p984
I75
sa(dp985
Vkftime
p986
I120
sVftime
p987
I53
sVkey
p988
Vh
p989
sVtime
p990
I67
sa(dp991
Vkftime
p992
I79
sVftime
p993
I0
sVkey
p994
Va
p995
sVtime
p996
I79
sa(dp997
Vkftime
p998
I141
sVftime
p999
I42
sVkey
p1000
Vt
p1001
sVtime
p1002
I99
sa(dp1003
Vkftime
p1004
I158
sVftime
p1005
I91
sVkey
p1006
V 
p1007
sVtime
p1008
I67
sa(dp1009
Vkftime
p1010
I176
sVftime
p1011
I109
sVkey
p1012
Vj
p1013
sVtime
p1014
I67
sa(dp1015
Vkftime
p1016
I151
sVftime
p1017
I73
sVkey
p1018
Vo
p1019
sVtime
p1020
I78
sa(dp1021
Vkftime
p1022
I148
sVftime
p1023
I101
sVkey
p1024
Vj
p1025
sVtime
p1026
I47
sa(dp1027
Vkftime
p1028
I68
sVftime
p1029
I12
sVkey
p1030
Ve
p1031
sVtime
p1032
I56
sa(dp1033
Vkftime
p1034
I79
sVftime
p1035
NsVkey
p1036
Vj
p1037
sVtime
p1038
I79
sa(dp1039
Vkftime
p1040
I158
sVftime
p1041
I91
sVkey
p1042
Vo
p1043
sVtime
p1044
I67
sa(dp1045
Vkftime
p1046
I155
sVftime
p1047
I64
sVkey
p1048
Vk
p1049
sVtime
p1050
I91
sa(dp1051
Vkftime
p1052
I95
sVftime
p1053
I0
sVkey
p1054
Ve
p1055
sVtime
p1056
I95
sa(dp1057
Vkftime
p1058
I852
sVftime
p1059
I769
sVkey
p1060
VF
p1061
sVtime
p1062
I83
sa(dp1063
Vkftime
p1064
I106
sVftime
p1065
I27
sVkey
p1066
Vo
p1067
sVtime
p1068
I79
sa(dp1069
Vkftime
p1070
I88
sVftime
p1071
I13
sVkey
p1072
Vr
p1073
sVtime
p1074
I75
sa(dp1075
Vkftime
p1076
I101
sVftime
p1077
I34
sVkey
p1078
V 
p1079
sVtime
p1080
I67
sa(dp1081
Vkftime
p1082
I195
sVftime
p1083
I100
sVkey
p1084
Vh
p1085
sVtime
p1086
I95
sa(dp1087
Vkftime
p1088
I67
sVftime
p1089
I0
sVkey
p1090
Ve
p1091
sVtime
p1092
I67
sa(dp1093
Vkftime
p1094
I120
sVftime
p1095
I77
sVkey
p1096
Va
p1097
sVtime
p1098
I43
sa(dp1099
Vkftime
p1100
I147
sVftime
p1101
I72
sVkey
p1102
Vv
p1103
sVtime
p1104
I75
sa(dp1105
Vkftime
p1106
I142
sVftime
p1107
I38
sVkey
p1108
Ve
p1109
sVtime
p1110
I104
sa(dp1111
Vkftime
p1112
I91
sVftime
p1113
I28
sVkey
p1114
Vn
p1115
sVtime
p1116
I63
sa(dp1117
Vkftime
p1118
I279
sVftime
p1119
I180
sVkey
p1120
V'
p1121
sVtime
p1122
I99
sa(dp1123
Vkftime
p1124
I96
sVftime
p1125
I12
sVkey
p1126
Vt
p1127
sVtime
p1128
I84
sa(dp1129
Vkftime
p1130
I188
sVftime
p1131
I90
sVkey
p1132
V 
p1133
sVtime
p1134
I98
sa(dp1135
Vkftime
p1136
I104
sVftime
p1137
I5
sVkey
p1138
Vs
p1139
sVtime
p1140
I99
sa(dp1141
Vkftime
p1142
I121
sVftime
p1143
I34
sVkey
p1144
Va
p1145
sVtime
p1146
I87
sa(dp1147
Vkftime
p1148
I624
sVftime
p1149
I541
sVkey
p1150
Vk
p1151
sVtime
p1152
I83
sa(dp1153
Vkftime
p1154
I108
sVftime
p1155
I5
sVkey
p1156
Ve
p1157
sVtime
p1158
I103
sa(dp1159
Vkftime
p1160
I130
sVftime
p1161
I43
sVkey
p1162
V 
p1163
sVtime
p1164
I87
sa(dp1165
Vkftime
p1166
I449
sVftime
p1167
I354
sVkey
p1168
Vd
p1169
sVtime
p1170
I95
sa(dp1171
Vkftime
p1172
I76
sVftime
p1173
I1
sVkey
p1174
Vo
p1175
sVtime
p1176
I75
sa(dp1177
Vkftime
p1178
I170
sVftime
p1179
I83
sVkey
p1180
Vn
p1181
sVtime
p1182
I87
sa(dp1183
Vkftime
p1184
I287
sVftime
p1185
I212
sVkey
p1186
Vt
p1187
sVtime
p1188
I75
sa(dp1189
Vkftime
p1190
I779
sVftime
p1191
I700
sVkey
p1192
V 
p1193
sVtime
p1194
I79
sa(dp1195
Vkftime
p1196
I76
sVftime
p1197
I37
sVkey
p1198
Vw
p1199
sVtime
p1200
I39
sa(dp1201
Vkftime
p1202
I79
sVftime
p1203
NsVkey
p1204
Vd
p1205
sVtime
p1206
I79
sa(dp1207
Vkftime
p1208
I156
sVftime
p1209
I73
sVkey
p1210
Vr
p1211
sVtime
p1212
I83
sa(dp1213
Vkftime
p1214
I387
sVftime
p1215
I304
sVkey
p1216
Vi
p1217
sVtime
p1218
I83
sa(dp1219
Vkftime
p1220
I199
sVftime
p1221
I112
sVkey
p1222
Vv
p1223
sVtime
p1224
I87
sa(dp1225
Vkftime
p1226
I141
sVftime
p1227
I45
sVkey
p1228
Ve
p1229
sVtime
p1230
I96
sa(dp1231
Vkftime
p1232
I71
sVftime
p1233
I0
sVkey
p1234
V 
p1235
sVtime
p1236
I71
sa(dp1237
Vkftime
p1238
I163
sVftime
p1239
I75
sVkey
p1240
Vm
p1241
sVtime
p1242
I88
sa(dp1243
Vkftime
p1244
I91
sVftime
p1245
I0
sVkey
p1246
Ve
p1247
sVtime
p1248
I91
sa(dp1249
Vkftime
p1250
I80
sVftime
p1251
I13
sVkey
p1252
V 
p1253
sVtime
p1254
I67
sa(dp1255
Vkftime
p1256
I209
sVftime
p1257
I121
sVkey
p1258
Vm
p1259
sVtime
p1260
I88
sa(dp1261
Vkftime
p1262
I110
sVftime
p1263
I0
sVkey
p1264
Va
p1265
sVtime
p1266
I110
sa(dp1267
Vkftime
p1268
I103
sVftime
p1269
I0
sVkey
p1270
Vd
p1271
sVtime
p1272
I103
sa(dp1273
Vkftime
p1274
I71
sVftime
p1275
I0
sVkey
p1276
V 
p1277
sVtime
p1278
I71
sa(dp1279
Vkftime
p1280
I214
sVftime
p1281
I131
sVkey
p1282
Vl
p1283
sVtime
p1284
I83
sa(dp1285
Vkftime
p1286
I129
sVftime
p1287
I75
sVkey
p1288
Vi
p1289
sVtime
p1290
I54
sa(dp1291
Vkftime
p1292
I140
sVftime
p1293
I65
sVkey
p1294
Vk
p1295
sVtime
p1296
I75
sa(dp1297
Vkftime
p1298
I99
sVftime
p1299
I0
sVkey
p1300
Ve
p1301
sVtime
p1302
I99
sa(dp1303
Vkftime
p1304
I117
sVftime
p1305
I23
sVkey
p1306
V 
p1307
sVtime
p1308
I94
sa(dp1309
Vkftime
p1310
I102
sVftime
p1311
I43
sVkey
p1312
Vt
p1313
sVtime
p1314
I59
sa(dp1315
Vkftime
p1316
I114
sVftime
p1317
I33
sVkey
p1318
Vh
p1319
sVtime
p1320
I81
sa(dp1321
Vkftime
p1322
I67
sVftime
p1323
I0
sVkey
p1324
Va
p1325
sVtime
p1326
I67
sa(dp1327
Vkftime
p1328
I140
sVftime
p1329
I53
sVkey
p1330
Vt
p1331
sVtime
p1332
I87
sa(dp1333
Vkftime
p1334
I377
sVftime
p1335
I242
sVkey
p1336
V!
p1337
sVtime
p1338
I135
sa.